; ModuleID = 'source-C-CXX/11/243.cpp'
source_filename = "source-C-CXX/11/243.cpp"
target datalayout = "e-m:e-p270:32:32-p271:32:32-p272:64:64-i64:64-f80:128-n8:16:32:64-S128"
target triple = "x86_64-pc-linux-gnu"

%"class.std::ios_base::Init" = type { i8 }
%"class.std::basic_istream" = type { i32 (...)**, i64, %"class.std::basic_ios" }
%"class.std::basic_ios" = type { %"class.std::ios_base", %"class.std::basic_ostream"*, i8, i8, %"class.std::basic_streambuf"*, %"class.std::ctype"*, %"class.std::num_put"*, %"class.std::num_get"* }
%"class.std::ios_base" = type { i32 (...)**, i64, i64, i32, i32, i32, %"struct.std::ios_base::_Callback_list"*, %"struct.std::ios_base::_Words", [8 x %"struct.std::ios_base::_Words"], i32, %"struct.std::ios_base::_Words"*, %"class.std::locale" }
%"struct.std::ios_base::_Callback_list" = type { %"struct.std::ios_base::_Callback_list"*, void (i32, %"class.std::ios_base"*, i32)*, i32, i32 }
%"struct.std::ios_base::_Words" = type { i8*, i64 }
%"class.std::locale" = type { %"class.std::locale::_Impl"* }
%"class.std::locale::_Impl" = type { i32, %"class.std::locale::facet"**, i64, %"class.std::locale::facet"**, i8** }
%"class.std::locale::facet" = type <{ i32 (...)**, i32, [4 x i8] }>
%"class.std::basic_ostream" = type { i32 (...)**, %"class.std::basic_ios" }
%"class.std::basic_streambuf" = type { i32 (...)**, i8*, i8*, i8*, i8*, i8*, i8*, %"class.std::locale" }
%"class.std::ctype" = type <{ %"class.std::locale::facet.base", [4 x i8], %struct.__locale_struct*, i8, [7 x i8], i32*, i32*, i16*, i8, [256 x i8], [256 x i8], i8, [6 x i8] }>
%"class.std::locale::facet.base" = type <{ i32 (...)**, i32 }>
%struct.__locale_struct = type { [13 x %struct.__locale_data*], i16*, i32*, i32*, [13 x i8*] }
%struct.__locale_data = type opaque
%"class.std::num_put" = type { %"class.std::locale::facet.base", [4 x i8] }
%"class.std::num_get" = type { %"class.std::locale::facet.base", [4 x i8] }

@_ZStL8__ioinit = internal global %"class.std::ios_base::Init" zeroinitializer, align 1
@__dso_handle = external hidden global i8
@_ZSt3cin = external global %"class.std::basic_istream", align 8
@_ZSt4cout = external global %"class.std::basic_ostream", align 8
@llvm.global_ctors = appending global [1 x { i32, void ()*, i8* }] [{ i32, void ()*, i8* } { i32 65535, void ()* @_GLOBAL__sub_I_243.cpp, i8* null }]

declare void @_ZNSt8ios_base4InitC1Ev(%"class.std::ios_base::Init"* nonnull align 1 dereferenceable(1)) unnamed_addr #0

; Function Attrs: nounwind
declare void @_ZNSt8ios_base4InitD1Ev(%"class.std::ios_base::Init"* nonnull align 1 dereferenceable(1)) unnamed_addr #1

; Function Attrs: nofree nounwind
declare i32 @__cxa_atexit(void (i8*)*, i8*, i8*) local_unnamed_addr #2

; Function Attrs: mustprogress norecurse sspstrong uwtable
define dso_local i32 @main() local_unnamed_addr #3 {
  %1 = alloca [100000 x i32], align 16
  %2 = alloca [100000 x i32], align 16
  %3 = bitcast [100000 x i32]* %1 to i8*
  call void @llvm.lifetime.start.p0i8(i64 400000, i8* nonnull %3) #9
  call void @llvm.memset.p0i8.i64(i8* noundef nonnull align 16 dereferenceable(400000) %3, i8 0, i64 400000, i1 false)
  %4 = bitcast [100000 x i32]* %2 to i8*
  call void @llvm.lifetime.start.p0i8(i64 400000, i8* nonnull %4) #9
  br label %5

5:                                                ; preds = %5, %0
  %6 = phi i64 [ 0, %0 ], [ %11, %5 ]
  %7 = getelementptr inbounds [100000 x i32], [100000 x i32]* %1, i64 0, i64 %6
  %8 = call nonnull align 8 dereferenceable(16) %"class.std::basic_istream"* @_ZNSirsERi(%"class.std::basic_istream"* nonnull align 8 dereferenceable(16) @_ZSt3cin, i32* nonnull align 4 dereferenceable(4) %7)
  %9 = load i32, i32* %7, align 4, !tbaa !5
  %10 = icmp eq i32 %9, -1
  %11 = add nuw nsw i64 %6, 1
  %12 = icmp eq i64 %11, 100000
  %13 = select i1 %10, i1 true, i1 %12
  br i1 %13, label %14, label %5, !llvm.loop !9

14:                                               ; preds = %5, %145
  %15 = phi i64 [ %146, %145 ], [ 0, %5 ]
  %16 = phi i32 [ %152, %145 ], [ 0, %5 ]
  %17 = shl i64 %15, 32
  %18 = ashr exact i64 %17, 32
  br label %19

19:                                               ; preds = %156, %14
  %20 = phi i64 [ 0, %14 ], [ %144, %156 ]
  %21 = phi i64 [ %18, %14 ], [ %142, %156 ]
  %22 = getelementptr inbounds [100000 x i32], [100000 x i32]* %1, i64 0, i64 %21
  %23 = load i32, i32* %22, align 4, !tbaa !5
  %24 = getelementptr inbounds [100000 x i32], [100000 x i32]* %2, i64 0, i64 %20
  store i32 %23, i32* %24, align 8, !tbaa !5
  %25 = add nsw i64 %21, 1
  %26 = icmp eq i32 %23, 0
  %27 = or i64 %20, 1
  br i1 %26, label %28, label %138

28:                                               ; preds = %138, %19
  %29 = phi i64 [ %20, %19 ], [ %27, %138 ]
  %30 = phi i64 [ %25, %19 ], [ %142, %138 ]
  %31 = phi i64 [ %27, %19 ], [ %144, %138 ]
  %32 = and i64 %29, 4294967295
  %33 = and i64 %31, 4294967295
  br label %38

34:                                               ; preds = %94, %87, %38
  %35 = phi i32 [ %41, %38 ], [ %89, %87 ], [ %104, %94 ]
  %36 = add nuw nsw i64 %40, 1
  %37 = icmp eq i64 %43, %33
  br i1 %37, label %107, label %38, !llvm.loop !11

38:                                               ; preds = %28, %34
  %39 = phi i64 [ 0, %28 ], [ %43, %34 ]
  %40 = phi i64 [ 1, %28 ], [ %36, %34 ]
  %41 = phi i32 [ 0, %28 ], [ %35, %34 ]
  %42 = sub nsw i64 %29, %39
  %43 = add nuw nsw i64 %39, 1
  %44 = icmp ult i64 %39, %32
  br i1 %44, label %45, label %34

45:                                               ; preds = %38
  %46 = getelementptr inbounds [100000 x i32], [100000 x i32]* %2, i64 0, i64 %39
  %47 = load i32, i32* %46, align 4, !tbaa !5
  %48 = shl nsw i32 %47, 1
  %49 = icmp ult i64 %42, 8
  br i1 %49, label %91, label %50

50:                                               ; preds = %45
  %51 = and i64 %42, -8
  %52 = add i64 %40, %51
  %53 = insertelement <4 x i32> <i32 poison, i32 0, i32 0, i32 0>, i32 %41, i32 0
  %54 = insertelement <4 x i32> poison, i32 %47, i32 0
  %55 = shufflevector <4 x i32> %54, <4 x i32> poison, <4 x i32> zeroinitializer
  %56 = insertelement <4 x i32> poison, i32 %47, i32 0
  %57 = shufflevector <4 x i32> %56, <4 x i32> poison, <4 x i32> zeroinitializer
  %58 = insertelement <4 x i32> poison, i32 %48, i32 0
  %59 = shufflevector <4 x i32> %58, <4 x i32> poison, <4 x i32> zeroinitializer
  %60 = insertelement <4 x i32> poison, i32 %48, i32 0
  %61 = shufflevector <4 x i32> %60, <4 x i32> poison, <4 x i32> zeroinitializer
  br label %62

62:                                               ; preds = %62, %50
  %63 = phi i64 [ 0, %50 ], [ %85, %62 ]
  %64 = phi <4 x i32> [ %53, %50 ], [ %83, %62 ]
  %65 = phi <4 x i32> [ zeroinitializer, %50 ], [ %84, %62 ]
  %66 = add i64 %40, %63
  %67 = getelementptr inbounds [100000 x i32], [100000 x i32]* %2, i64 0, i64 %66
  %68 = bitcast i32* %67 to <4 x i32>*
  %69 = load <4 x i32>, <4 x i32>* %68, align 4, !tbaa !5
  %70 = getelementptr inbounds i32, i32* %67, i64 4
  %71 = bitcast i32* %70 to <4 x i32>*
  %72 = load <4 x i32>, <4 x i32>* %71, align 4, !tbaa !5
  %73 = shl nsw <4 x i32> %69, <i32 1, i32 1, i32 1, i32 1>
  %74 = shl nsw <4 x i32> %72, <i32 1, i32 1, i32 1, i32 1>
  %75 = icmp eq <4 x i32> %55, %73
  %76 = icmp eq <4 x i32> %57, %74
  %77 = icmp eq <4 x i32> %69, %59
  %78 = icmp eq <4 x i32> %72, %61
  %79 = select <4 x i1> %75, <4 x i1> <i1 true, i1 true, i1 true, i1 true>, <4 x i1> %77
  %80 = select <4 x i1> %76, <4 x i1> <i1 true, i1 true, i1 true, i1 true>, <4 x i1> %78
  %81 = zext <4 x i1> %79 to <4 x i32>
  %82 = zext <4 x i1> %80 to <4 x i32>
  %83 = add <4 x i32> %64, %81
  %84 = add <4 x i32> %65, %82
  %85 = add nuw i64 %63, 8
  %86 = icmp eq i64 %85, %51
  br i1 %86, label %87, label %62, !llvm.loop !12

87:                                               ; preds = %62
  %88 = add <4 x i32> %84, %83
  %89 = call i32 @llvm.vector.reduce.add.v4i32(<4 x i32> %88)
  %90 = icmp eq i64 %42, %51
  br i1 %90, label %34, label %91

91:                                               ; preds = %45, %87
  %92 = phi i64 [ %40, %45 ], [ %52, %87 ]
  %93 = phi i32 [ %41, %45 ], [ %89, %87 ]
  br label %94

94:                                               ; preds = %91, %94
  %95 = phi i64 [ %105, %94 ], [ %92, %91 ]
  %96 = phi i32 [ %104, %94 ], [ %93, %91 ]
  %97 = getelementptr inbounds [100000 x i32], [100000 x i32]* %2, i64 0, i64 %95
  %98 = load i32, i32* %97, align 4, !tbaa !5
  %99 = shl nsw i32 %98, 1
  %100 = icmp eq i32 %47, %99
  %101 = icmp eq i32 %98, %48
  %102 = select i1 %100, i1 true, i1 %101
  %103 = zext i1 %102 to i32
  %104 = add nsw i32 %96, %103
  %105 = add nuw nsw i64 %95, 1
  %106 = icmp eq i64 %105, %33
  br i1 %106, label %34, label %94, !llvm.loop !14

107:                                              ; preds = %34
  %108 = call nonnull align 8 dereferenceable(8) %"class.std::basic_ostream"* @_ZNSolsEi(%"class.std::basic_ostream"* nonnull align 8 dereferenceable(8) @_ZSt4cout, i32 %35)
  %109 = bitcast %"class.std::basic_ostream"* %108 to i8**
  %110 = load i8*, i8** %109, align 8, !tbaa !16
  %111 = getelementptr i8, i8* %110, i64 -24
  %112 = bitcast i8* %111 to i64*
  %113 = load i64, i64* %112, align 8
  %114 = bitcast %"class.std::basic_ostream"* %108 to i8*
  %115 = add nsw i64 %113, 240
  %116 = getelementptr inbounds i8, i8* %114, i64 %115
  %117 = bitcast i8* %116 to %"class.std::ctype"**
  %118 = load %"class.std::ctype"*, %"class.std::ctype"** %117, align 8, !tbaa !18
  %119 = icmp eq %"class.std::ctype"* %118, null
  br i1 %119, label %120, label %121

120:                                              ; preds = %107
  call void @_ZSt16__throw_bad_castv() #10
  unreachable

121:                                              ; preds = %107
  %122 = getelementptr inbounds %"class.std::ctype", %"class.std::ctype"* %118, i64 0, i32 8
  %123 = load i8, i8* %122, align 8, !tbaa !22
  %124 = icmp eq i8 %123, 0
  br i1 %124, label %128, label %125

125:                                              ; preds = %121
  %126 = getelementptr inbounds %"class.std::ctype", %"class.std::ctype"* %118, i64 0, i32 9, i64 10
  %127 = load i8, i8* %126, align 1, !tbaa !24
  br label %134

128:                                              ; preds = %121
  call void @_ZNKSt5ctypeIcE13_M_widen_initEv(%"class.std::ctype"* nonnull align 8 dereferenceable(570) %118)
  %129 = bitcast %"class.std::ctype"* %118 to i8 (%"class.std::ctype"*, i8)***
  %130 = load i8 (%"class.std::ctype"*, i8)**, i8 (%"class.std::ctype"*, i8)*** %129, align 8, !tbaa !16
  %131 = getelementptr inbounds i8 (%"class.std::ctype"*, i8)*, i8 (%"class.std::ctype"*, i8)** %130, i64 6
  %132 = load i8 (%"class.std::ctype"*, i8)*, i8 (%"class.std::ctype"*, i8)** %131, align 8
  %133 = call signext i8 %132(%"class.std::ctype"* nonnull align 8 dereferenceable(570) %118, i8 signext 10)
  br label %134

134:                                              ; preds = %125, %128
  %135 = phi i8 [ %127, %125 ], [ %133, %128 ]
  %136 = call nonnull align 8 dereferenceable(8) %"class.std::basic_ostream"* @_ZNSo3putEc(%"class.std::basic_ostream"* nonnull align 8 dereferenceable(8) %108, i8 signext %135)
  %137 = call nonnull align 8 dereferenceable(8) %"class.std::basic_ostream"* @_ZNSo5flushEv(%"class.std::basic_ostream"* nonnull align 8 dereferenceable(8) %136)
  br label %145

138:                                              ; preds = %19
  %139 = getelementptr inbounds [100000 x i32], [100000 x i32]* %1, i64 0, i64 %25
  %140 = load i32, i32* %139, align 4, !tbaa !5
  %141 = getelementptr inbounds [100000 x i32], [100000 x i32]* %2, i64 0, i64 %27
  store i32 %140, i32* %141, align 4, !tbaa !5
  %142 = add nsw i64 %21, 2
  %143 = icmp eq i32 %140, 0
  %144 = add nuw nsw i64 %20, 2
  br i1 %143, label %28, label %156

145:                                              ; preds = %156, %134
  %146 = phi i64 [ %30, %134 ], [ %142, %156 ]
  %147 = shl i64 %146, 32
  %148 = ashr exact i64 %147, 32
  %149 = getelementptr inbounds [100000 x i32], [100000 x i32]* %1, i64 0, i64 %148
  %150 = load i32, i32* %149, align 4, !tbaa !5
  %151 = icmp eq i32 %150, -1
  %152 = add nuw nsw i32 %16, 1
  %153 = icmp eq i32 %152, 100000
  %154 = select i1 %151, i1 true, i1 %153
  br i1 %154, label %155, label %14, !llvm.loop !25

155:                                              ; preds = %145
  call void @llvm.lifetime.end.p0i8(i64 400000, i8* nonnull %4) #9
  call void @llvm.lifetime.end.p0i8(i64 400000, i8* nonnull %3) #9
  ret i32 0

156:                                              ; preds = %138
  %157 = icmp eq i64 %144, 10000
  br i1 %157, label %145, label %19, !llvm.loop !26
}

; Function Attrs: argmemonly mustprogress nofree nosync nounwind willreturn
declare void @llvm.lifetime.start.p0i8(i64 immarg, i8* nocapture) #4

; Function Attrs: argmemonly mustprogress nofree nounwind willreturn writeonly
declare void @llvm.memset.p0i8.i64(i8* nocapture writeonly, i8, i64, i1 immarg) #5

declare nonnull align 8 dereferenceable(16) %"class.std::basic_istream"* @_ZNSirsERi(%"class.std::basic_istream"* nonnull align 8 dereferenceable(16), i32* nonnull align 4 dereferenceable(4)) local_unnamed_addr #0

declare nonnull align 8 dereferenceable(8) %"class.std::basic_ostream"* @_ZNSolsEi(%"class.std::basic_ostream"* nonnull align 8 dereferenceable(8), i32) local_unnamed_addr #0

; Function Attrs: argmemonly mustprogress nofree nosync nounwind willreturn
declare void @llvm.lifetime.end.p0i8(i64 immarg, i8* nocapture) #4

declare nonnull align 8 dereferenceable(8) %"class.std::basic_ostream"* @_ZNSo3putEc(%"class.std::basic_ostream"* nonnull align 8 dereferenceable(8), i8 signext) local_unnamed_addr #0

declare nonnull align 8 dereferenceable(8) %"class.std::basic_ostream"* @_ZNSo5flushEv(%"class.std::basic_ostream"* nonnull align 8 dereferenceable(8)) local_unnamed_addr #0

; Function Attrs: noreturn
declare void @_ZSt16__throw_bad_castv() local_unnamed_addr #6

declare void @_ZNKSt5ctypeIcE13_M_widen_initEv(%"class.std::ctype"* nonnull align 8 dereferenceable(570)) local_unnamed_addr #0

; Function Attrs: sspstrong uwtable
define internal void @_GLOBAL__sub_I_243.cpp() #7 section ".text.startup" {
  tail call void @_ZNSt8ios_base4InitC1Ev(%"class.std::ios_base::Init"* nonnull align 1 dereferenceable(1) @_ZStL8__ioinit)
  %1 = tail call i32 @__cxa_atexit(void (i8*)* bitcast (void (%"class.std::ios_base::Init"*)* @_ZNSt8ios_base4InitD1Ev to void (i8*)*), i8* getelementptr inbounds (%"class.std::ios_base::Init", %"class.std::ios_base::Init"* @_ZStL8__ioinit, i64 0, i32 0), i8* nonnull @__dso_handle) #9
  ret void
}

; Function Attrs: nofree nosync nounwind readnone willreturn
declare i32 @llvm.vector.reduce.add.v4i32(<4 x i32>) #8


!llvm.module.flags = !{!0, !1, !2, !3}
!llvm.ident = !{!4}

!0 = !{i32 1, !"wchar_size", i32 4}
!1 = !{i32 7, !"PIC Level", i32 2}
!2 = !{i32 7, !"PIE Level", i32 2}
!3 = !{i32 7, !"uwtable", i32 1}
!4 = !{!"clang version 13.0.0"}
!5 = !{!6, !6, i64 0}
!6 = !{!"int", !7, i64 0}
!7 = !{!"omnipotent char", !8, i64 0}
!8 = !{!"Simple C++ TBAA"}
!9 = distinct !{!9, !10}
!10 = !{!"llvm.loop.mustprogress"}
!11 = distinct !{!11, !10}
!12 = distinct !{!12, !10, !13}
!13 = !{!"llvm.loop.isvectorized", i32 1}
!14 = distinct !{!14, !10, !15, !13}
!15 = !{!"llvm.loop.unroll.runtime.disable"}
!16 = !{!17, !17, i64 0}
!17 = !{!"vtable pointer", !8, i64 0}
!18 = !{!19, !20, i64 240}
!19 = !{!"_ZTSSt9basic_iosIcSt11char_traitsIcEE", !20, i64 216, !7, i64 224, !21, i64 225, !20, i64 232, !20, i64 240, !20, i64 248, !20, i64 256}
!20 = !{!"any pointer", !7, i64 0}
!21 = !{!"bool", !7, i64 0}
!22 = !{!23, !7, i64 56}
!23 = !{!"_ZTSSt5ctypeIcE", !20, i64 16, !21, i64 24, !20, i64 32, !20, i64 40, !20, i64 48, !7, i64 56, !7, i64 57, !7, i64 313, !7, i64 569}
!24 = !{!7, !7, i64 0}
!25 = distinct !{!25, !10}
!26 = distinct !{!26, !10}
